; Function Attrs: mustprogress nofree norecurse nosync nounwind willreturn memory(argmem: readwrite) uwtable
define noundef nonnull align 8 dereferenceable(32) ptr @_ZN32pxrInternal_v0_24__pxrReserved__10GfMatrix2dmLEd(ptr noundef nonnull returned align 8 dereferenceable(32) %0, double noundef %1) local_unnamed_addr #2 align 2 {
  %3 = load double, ptr %0, align 8
  %4 = fmul double %1, %3
  store double %4, ptr %0, align 8
  %5 = getelementptr inbounds nuw i8, ptr %0, i64 8
  %6 = load double, ptr %5, align 8
  %7 = fmul double %1, %6
  store double %7, ptr %5, align 8
  %8 = getelementptr inbounds nuw i8, ptr %0, i64 16
  %9 = load double, ptr %8, align 8
  %10 = fmul double %1, %9
  store double %10, ptr %8, align 8
  %11 = getelementptr inbounds nuw i8, ptr %0, i64 24
  %12 = load double, ptr %11, align 8
  %13 = fmul double %1, %12
  store double %13, ptr %11, align 8
  ret ptr %0
}